target datalayout = "e-m:e-p270:32:32-p271:32:32-p272:64:64-i64:64-i128:128-f80:128-n8:16:32:64-S128"
target triple = "x86_64-pc-linux-gnu"

%struct.stbvox_mesh_maker = type { %struct.stbvox_input_description, i32, i32, i32, i32, i32, i32, i32, i32, i32, i32, i32, i32, i32, i32, [6 x [4 x i32]], [6 x [4 x i32]], i32, i32, i32, i32, [2 x [3 x ptr]], [2 x [3 x ptr]], [2 x [3 x ptr]], [2 x [3 x i32]], [2 x [3 x i32]], [2 x [3 x i32]], i32, [128 x [2 x float]] }
%struct.stbvox_input_description = type { i8, ptr, ptr, ptr, ptr, ptr, ptr, ptr, ptr, ptr, ptr, ptr, ptr, ptr, ptr, ptr, ptr, ptr, ptr, ptr, ptr, ptr, ptr, ptr, ptr, ptr, ptr, ptr, ptr, ptr, ptr, ptr, ptr, ptr, ptr, ptr, ptr, ptr, ptr, ptr, ptr, ptr, ptr }

; Function Attrs: nounwind uwtable
define void @stbvox_get_transform(ptr noundef %0, ptr noundef %1) #0 {
  %3 = alloca ptr, align 8
  %4 = alloca ptr, align 8
  store ptr %0, ptr %3, align 8, !tbaa !20
  store ptr %1, ptr %4, align 8, !tbaa !18
  %5 = load ptr, ptr %4, align 8, !tbaa !18
  %6 = getelementptr inbounds [3 x float], ptr %5, i64 0
  %7 = getelementptr inbounds [3 x float], ptr %6, i64 0, i64 0
  store float 1.000000e+00, ptr %7, align 4, !tbaa !8
  %8 = load ptr, ptr %4, align 8, !tbaa !18
  %9 = getelementptr inbounds [3 x float], ptr %8, i64 0
  %10 = getelementptr inbounds [3 x float], ptr %9, i64 0, i64 1
  store float 1.000000e+00, ptr %10, align 4, !tbaa !8
  %11 = load ptr, ptr %4, align 8, !tbaa !18
  %12 = getelementptr inbounds [3 x float], ptr %11, i64 0
  %13 = getelementptr inbounds [3 x float], ptr %12, i64 0, i64 2
  store float 5.000000e-01, ptr %13, align 4, !tbaa !8
  %14 = load ptr, ptr %3, align 8, !tbaa !20
  %15 = getelementptr inbounds nuw %struct.stbvox_mesh_maker, ptr %14, i32 0, i32 17
  %16 = load i32, ptr %15, align 8, !tbaa !120
  %17 = sitofp i32 %16 to float
  %18 = load ptr, ptr %4, align 8, !tbaa !18
  %19 = getelementptr inbounds [3 x float], ptr %18, i64 1
  %20 = getelementptr inbounds [3 x float], ptr %19, i64 0, i64 0
  store float %17, ptr %20, align 4, !tbaa !8
  %21 = load ptr, ptr %3, align 8, !tbaa !20
  %22 = getelementptr inbounds nuw %struct.stbvox_mesh_maker, ptr %21, i32 0, i32 18
  %23 = load i32, ptr %22, align 4, !tbaa !121
  %24 = sitofp i32 %23 to float
  %25 = load ptr, ptr %4, align 8, !tbaa !18
  %26 = getelementptr inbounds [3 x float], ptr %25, i64 1
  %27 = getelementptr inbounds [3 x float], ptr %26, i64 0, i64 1
  store float %24, ptr %27, align 4, !tbaa !8
  %28 = load ptr, ptr %3, align 8, !tbaa !20
  %29 = getelementptr inbounds nuw %struct.stbvox_mesh_maker, ptr %28, i32 0, i32 19
  %30 = load i32, ptr %29, align 8, !tbaa !122
  %31 = sitofp i32 %30 to float
  %32 = load ptr, ptr %4, align 8, !tbaa !18
  %33 = getelementptr inbounds [3 x float], ptr %32, i64 1
  %34 = getelementptr inbounds [3 x float], ptr %33, i64 0, i64 2
  store float %31, ptr %34, align 4, !tbaa !8
  %35 = load ptr, ptr %3, align 8, !tbaa !20
  %36 = getelementptr inbounds nuw %struct.stbvox_mesh_maker, ptr %35, i32 0, i32 17
  %37 = load i32, ptr %36, align 8, !tbaa !120
  %38 = and i32 %37, 255
  %39 = sitofp i32 %38 to float
  %40 = load ptr, ptr %4, align 8, !tbaa !18
  %41 = getelementptr inbounds [3 x float], ptr %40, i64 2
  %42 = getelementptr inbounds [3 x float], ptr %41, i64 0, i64 0
  store float %39, ptr %42, align 4, !tbaa !8
  %43 = load ptr, ptr %3, align 8, !tbaa !20
  %44 = getelementptr inbounds nuw %struct.stbvox_mesh_maker, ptr %43, i32 0, i32 18
  %45 = load i32, ptr %44, align 4, !tbaa !121
  %46 = and i32 %45, 255
  %47 = sitofp i32 %46 to float
  %48 = load ptr, ptr %4, align 8, !tbaa !18
  %49 = getelementptr inbounds [3 x float], ptr %48, i64 2
  %50 = getelementptr inbounds [3 x float], ptr %49, i64 0, i64 1
  store float %47, ptr %50, align 4, !tbaa !8
  %51 = load ptr, ptr %3, align 8, !tbaa !20
  %52 = getelementptr inbounds nuw %struct.stbvox_mesh_maker, ptr %51, i32 0, i32 19
  %53 = load i32, ptr %52, align 8, !tbaa !122
  %54 = and i32 %53, 255
  %55 = sitofp i32 %54 to float
  %56 = load ptr, ptr %4, align 8, !tbaa !18
  %57 = getelementptr inbounds [3 x float], ptr %56, i64 2
  %58 = getelementptr inbounds [3 x float], ptr %57, i64 0, i64 2
  store float %55, ptr %58, align 4, !tbaa !8
  ret void
}