; Function Attrs: mustprogress nofree norecurse nosync nounwind willreturn memory(argmem: readwrite) uwtable
define void @stbvox_get_transform(ptr noundef readonly captures(none) %0, ptr noundef writeonly captures(none) initializes((0, 36)) %1) local_unnamed_addr #11 {
  store float 1.000000e+00, ptr %1, align 4, !tbaa !6
  %3 = getelementptr inbounds nuw i8, ptr %1, i64 4
  store float 1.000000e+00, ptr %3, align 4, !tbaa !6
  %4 = getelementptr inbounds nuw i8, ptr %1, i64 8
  store float 5.000000e-01, ptr %4, align 4, !tbaa !6
  %5 = getelementptr inbounds nuw i8, ptr %0, i64 592
  %6 = load i32, ptr %5, align 8, !tbaa !99
  %7 = sitofp i32 %6 to float
  %8 = getelementptr inbounds nuw i8, ptr %1, i64 12
  store float %7, ptr %8, align 4, !tbaa !6
  %9 = getelementptr inbounds nuw i8, ptr %0, i64 596
  %10 = load i32, ptr %9, align 4, !tbaa !100
  %11 = sitofp i32 %10 to float
  %12 = getelementptr inbounds nuw i8, ptr %1, i64 16
  store float %11, ptr %12, align 4, !tbaa !6
  %13 = getelementptr inbounds nuw i8, ptr %0, i64 600
  %14 = load i32, ptr %13, align 8, !tbaa !101
  %15 = sitofp i32 %14 to float
  %16 = getelementptr inbounds nuw i8, ptr %1, i64 20
  store float %15, ptr %16, align 4, !tbaa !6
  %17 = and i32 %6, 255
  %18 = uitofp nneg i32 %17 to float
  %19 = getelementptr inbounds nuw i8, ptr %1, i64 24
  store float %18, ptr %19, align 4, !tbaa !6
  %20 = and i32 %10, 255
  %21 = uitofp nneg i32 %20 to float
  %22 = getelementptr inbounds nuw i8, ptr %1, i64 28
  store float %21, ptr %22, align 4, !tbaa !6
  %23 = and i32 %14, 255
  %24 = uitofp nneg i32 %23 to float
  %25 = getelementptr inbounds nuw i8, ptr %1, i64 32
  store float %24, ptr %25, align 4, !tbaa !6
  ret void
}